; ModuleID = '45/2931.c'
source_filename = "45/2931.c"
target datalayout = "e-m:e-p270:32:32-p271:32:32-p272:64:64-i64:64-f80:128-n8:16:32:64-S128"
target triple = "x86_64-pc-linux-gnu"

@.str = private unnamed_addr constant [3 x i8] c"%d\00", align 1

; Function Attrs: noinline nounwind uwtable
define dso_local i32 @main() #0 {
  %1 = alloca i32, align 4
  %2 = alloca i32, align 4
  %3 = alloca i32, align 4
  %4 = alloca i32, align 4
  %5 = alloca i32, align 4
  %6 = alloca i32, align 4
  %7 = alloca i32, align 4
  %8 = alloca i32, align 4
  %9 = alloca i32, align 4
  %10 = alloca [1000 x i8], align 16
  %11 = alloca [1000 x i8], align 16
  %12 = alloca [1000 x i8], align 16
  %13 = alloca [1000 x i8], align 16
  store i32 0, i32* %1, align 4
  %14 = bitcast [1000 x i8]* %11 to i8*
  call void @llvm.memset.p0i8.i64(i8* align 16 %14, i8 0, i64 1000, i1 false)
  %15 = bitcast [1000 x i8]* %12 to i8*
  call void @llvm.memset.p0i8.i64(i8* align 16 %15, i8 0, i64 1000, i1 false)
  %16 = bitcast [1000 x i8]* %13 to i8*
  call void @llvm.memset.p0i8.i64(i8* align 16 %16, i8 0, i64 1000, i1 false)
  %17 = getelementptr inbounds [1000 x i8], [1000 x i8]* %10, i64 0, i64 0
  %18 = call i32 (i8*, ...) bitcast (i32 (...)* @gets to i32 (i8*, ...)*)(i8* %17)
  %19 = getelementptr inbounds [1000 x i8], [1000 x i8]* %10, i64 0, i64 0
  %20 = call i64 @strlen(i8* %19) #4
  %21 = trunc i64 %20 to i32
  store i32 %21, i32* %7, align 4
  store i32 0, i32* %3, align 4
  br label %22

22:                                               ; preds = %37, %0
  %23 = load i32, i32* %3, align 4
  %24 = sext i32 %23 to i64
  %25 = getelementptr inbounds [1000 x i8], [1000 x i8]* %10, i64 0, i64 %24
  %26 = load i8, i8* %25, align 1
  %27 = sext i8 %26 to i32
  %28 = icmp ne i32 %27, 32
  br i1 %28, label %29, label %40

29:                                               ; preds = %22
  %30 = load i32, i32* %3, align 4
  %31 = sext i32 %30 to i64
  %32 = getelementptr inbounds [1000 x i8], [1000 x i8]* %10, i64 0, i64 %31
  %33 = load i8, i8* %32, align 1
  %34 = load i32, i32* %3, align 4
  %35 = sext i32 %34 to i64
  %36 = getelementptr inbounds [1000 x i8], [1000 x i8]* %11, i64 0, i64 %35
  store i8 %33, i8* %36, align 1
  br label %37

37:                                               ; preds = %29
  %38 = load i32, i32* %3, align 4
  %39 = add nsw i32 %38, 1
  store i32 %39, i32* %3, align 4
  br label %22

40:                                               ; preds = %22
  store i32 0, i32* %6, align 4
  %41 = load i32, i32* %3, align 4
  %42 = add nsw i32 %41, 1
  store i32 %42, i32* %5, align 4
  br label %43

43:                                               ; preds = %57, %40
  %44 = load i32, i32* %5, align 4
  %45 = load i32, i32* %7, align 4
  %46 = icmp slt i32 %44, %45
  br i1 %46, label %47, label %60

47:                                               ; preds = %43
  %48 = load i32, i32* %5, align 4
  %49 = sext i32 %48 to i64
  %50 = getelementptr inbounds [1000 x i8], [1000 x i8]* %10, i64 0, i64 %49
  %51 = load i8, i8* %50, align 1
  %52 = load i32, i32* %6, align 4
  %53 = sext i32 %52 to i64
  %54 = getelementptr inbounds [1000 x i8], [1000 x i8]* %12, i64 0, i64 %53
  store i8 %51, i8* %54, align 1
  %55 = load i32, i32* %6, align 4
  %56 = add nsw i32 %55, 1
  store i32 %56, i32* %6, align 4
  br label %57

57:                                               ; preds = %47
  %58 = load i32, i32* %5, align 4
  %59 = add nsw i32 %58, 1
  store i32 %59, i32* %5, align 4
  br label %43

60:                                               ; preds = %43
  %61 = getelementptr inbounds [1000 x i8], [1000 x i8]* %11, i64 0, i64 0
  %62 = call i64 @strlen(i8* %61) #4
  %63 = trunc i64 %62 to i32
  store i32 %63, i32* %8, align 4
  %64 = getelementptr inbounds [1000 x i8], [1000 x i8]* %12, i64 0, i64 0
  %65 = call i64 @strlen(i8* %64) #4
  %66 = trunc i64 %65 to i32
  store i32 %66, i32* %9, align 4
  store i32 0, i32* %4, align 4
  store i32 0, i32* %3, align 4
  br label %67

67:                                               ; preds = %110, %60
  %68 = load i32, i32* %3, align 4
  %69 = load i32, i32* %9, align 4
  %70 = icmp slt i32 %68, %69
  br i1 %70, label %71, label %113

71:                                               ; preds = %67
  %72 = load i32, i32* %3, align 4
  %73 = sext i32 %72 to i64
  %74 = getelementptr inbounds [1000 x i8], [1000 x i8]* %12, i64 0, i64 %73
  %75 = load i8, i8* %74, align 1
  %76 = sext i8 %75 to i32
  %77 = getelementptr inbounds [1000 x i8], [1000 x i8]* %11, i64 0, i64 0
  %78 = load i8, i8* %77, align 16
  %79 = sext i8 %78 to i32
  %80 = icmp eq i32 %76, %79
  br i1 %80, label %81, label %109

81:                                               ; preds = %71
  %82 = load i32, i32* %3, align 4
  store i32 %82, i32* %5, align 4
  br label %83

83:                                               ; preds = %99, %81
  %84 = load i32, i32* %5, align 4
  %85 = load i32, i32* %3, align 4
  %86 = load i32, i32* %8, align 4
  %87 = add nsw i32 %85, %86
  %88 = icmp slt i32 %84, %87
  br i1 %88, label %89, label %102

89:                                               ; preds = %83
  %90 = load i32, i32* %5, align 4
  %91 = sext i32 %90 to i64
  %92 = getelementptr inbounds [1000 x i8], [1000 x i8]* %12, i64 0, i64 %91
  %93 = load i8, i8* %92, align 1
  %94 = load i32, i32* %4, align 4
  %95 = sext i32 %94 to i64
  %96 = getelementptr inbounds [1000 x i8], [1000 x i8]* %13, i64 0, i64 %95
  store i8 %93, i8* %96, align 1
  %97 = load i32, i32* %4, align 4
  %98 = add nsw i32 %97, 1
  store i32 %98, i32* %4, align 4
  br label %99

99:                                               ; preds = %89
  %100 = load i32, i32* %5, align 4
  %101 = add nsw i32 %100, 1
  store i32 %101, i32* %5, align 4
  br label %83

102:                                              ; preds = %83
  %103 = getelementptr inbounds [1000 x i8], [1000 x i8]* %13, i64 0, i64 0
  %104 = getelementptr inbounds [1000 x i8], [1000 x i8]* %11, i64 0, i64 0
  %105 = call i32 @strcmp(i8* %103, i8* %104) #4
  %106 = icmp eq i32 %105, 0
  br i1 %106, label %107, label %108

107:                                              ; preds = %102
  br label %113

108:                                              ; preds = %102
  br label %110

109:                                              ; preds = %71
  br label %110

110:                                              ; preds = %109, %108
  %111 = load i32, i32* %3, align 4
  %112 = add nsw i32 %111, 1
  store i32 %112, i32* %3, align 4
  br label %67

113:                                              ; preds = %107, %67
  %114 = load i32, i32* %3, align 4
  %115 = call i32 (i8*, ...) @printf(i8* getelementptr inbounds ([3 x i8], [3 x i8]* @.str, i64 0, i64 0), i32 %114)
  %116 = load i32, i32* %1, align 4
  ret i32 %116
}

; Function Attrs: argmemonly nounwind willreturn
declare void @llvm.memset.p0i8.i64(i8* nocapture writeonly, i8, i64, i1 immarg) #1

declare dso_local i32 @gets(...) #2

; Function Attrs: nounwind readonly
declare dso_local i64 @strlen(i8*) #3

; Function Attrs: nounwind readonly
declare dso_local i32 @strcmp(i8*, i8*) #3

declare dso_local i32 @printf(i8*, ...) #2


!llvm.module.flags = !{!0}
!llvm.ident = !{!1}

!0 = !{i32 1, !"wchar_size", i32 4}
!1 = !{!"clang version 10.0.0-4ubuntu1 "}
